target datalayout = "e-m:e-p270:32:32-p271:32:32-p272:64:64-i64:64-i128:128-f80:128-n8:16:32:64-S128"
target triple = "x86_64-pc-linux-gnu"

%struct.FT_GlyphRec_ = type { ptr, ptr, i32, %struct.FT_Vector_ }
%struct.FT_Vector_ = type { i64, i64 }
%struct.FT_Bitmap_ = type { i32, i32, i32, ptr, i16, i8, i8, ptr }
%struct.FT_BitmapGlyphRec_ = type { %struct.FT_GlyphRec_, i32, i32, %struct.FT_Bitmap_ }

; Function Attrs: nounwind uwtable
define internal i32 @ft_bitmap_glyph_copy(ptr noundef %0, ptr noundef %1) #0 {
  %3 = alloca ptr, align 8
  %4 = alloca ptr, align 8
  %5 = alloca ptr, align 8
  %6 = alloca ptr, align 8
  %7 = alloca ptr, align 8
  store ptr %0, ptr %3, align 8, !tbaa !3
  store ptr %1, ptr %4, align 8, !tbaa !3
  call void @llvm.lifetime.start.p0(i64 8, ptr %5) #6
  %8 = load ptr, ptr %3, align 8, !tbaa !3
  %9 = getelementptr inbounds nuw %struct.FT_GlyphRec_, ptr %8, i32 0, i32 0
  %10 = load ptr, ptr %9, align 8, !tbaa !14
  store ptr %10, ptr %5, align 8, !tbaa !20
  call void @llvm.lifetime.start.p0(i64 8, ptr %6) #6
  %11 = load ptr, ptr %3, align 8, !tbaa !3
  store ptr %11, ptr %6, align 8, !tbaa !10
  call void @llvm.lifetime.start.p0(i64 8, ptr %7) #6
  %12 = load ptr, ptr %4, align 8, !tbaa !3
  store ptr %12, ptr %7, align 8, !tbaa !10
  %13 = load ptr, ptr %6, align 8, !tbaa !10
  %14 = getelementptr inbounds nuw %struct.FT_BitmapGlyphRec_, ptr %13, i32 0, i32 1
  %15 = load i32, ptr %14, align 8, !tbaa !35
  %16 = load ptr, ptr %7, align 8, !tbaa !10
  %17 = getelementptr inbounds nuw %struct.FT_BitmapGlyphRec_, ptr %16, i32 0, i32 1
  store i32 %15, ptr %17, align 8, !tbaa !35
  %18 = load ptr, ptr %6, align 8, !tbaa !10
  %19 = getelementptr inbounds nuw %struct.FT_BitmapGlyphRec_, ptr %18, i32 0, i32 2
  %20 = load i32, ptr %19, align 4, !tbaa !38
  %21 = load ptr, ptr %7, align 8, !tbaa !10
  %22 = getelementptr inbounds nuw %struct.FT_BitmapGlyphRec_, ptr %21, i32 0, i32 2
  store i32 %20, ptr %22, align 4, !tbaa !38
  %23 = load ptr, ptr %5, align 8, !tbaa !20
  %24 = load ptr, ptr %6, align 8, !tbaa !10
  %25 = getelementptr inbounds nuw %struct.FT_BitmapGlyphRec_, ptr %24, i32 0, i32 3
  %26 = load ptr, ptr %7, align 8, !tbaa !10
  %27 = getelementptr inbounds nuw %struct.FT_BitmapGlyphRec_, ptr %26, i32 0, i32 3
  %28 = call i32 @FT_Bitmap_Copy(ptr noundef %23, ptr noundef %25, ptr noundef %27)
  call void @llvm.lifetime.end.p0(i64 8, ptr %7) #6
  call void @llvm.lifetime.end.p0(i64 8, ptr %6) #6
  call void @llvm.lifetime.end.p0(i64 8, ptr %5) #6
  ret i32 %28
}