; Function Attrs: nounwind uwtable
define internal i32 @ft_bitmap_glyph_copy(ptr noundef %0, ptr noundef initializes((40, 48)) %1) #0 {
  %3 = load ptr, ptr %0, align 8, !tbaa !3
  %4 = getelementptr inbounds nuw i8, ptr %0, i64 40
  %5 = load i32, ptr %4, align 8, !tbaa !28
  %6 = getelementptr inbounds nuw i8, ptr %1, i64 40
  store i32 %5, ptr %6, align 8, !tbaa !28
  %7 = getelementptr inbounds nuw i8, ptr %0, i64 44
  %8 = load i32, ptr %7, align 4, !tbaa !31
  %9 = getelementptr inbounds nuw i8, ptr %1, i64 44
  store i32 %8, ptr %9, align 4, !tbaa !31
  %10 = getelementptr inbounds nuw i8, ptr %0, i64 48
  %11 = getelementptr inbounds nuw i8, ptr %1, i64 48
  %12 = tail call i32 @FT_Bitmap_Copy(ptr noundef %3, ptr noundef nonnull %10, ptr noundef nonnull %11) #6
  ret i32 %12
}